; Function Attrs: mustprogress uwtable
define internal void @_ZN9grpc_core12_GLOBAL__N_124ConfigSelectorArgDestroyEPv(ptr noundef %p) #3 {
entry:
  %refs_.i = getelementptr inbounds i8, ptr %p, i64 8
  %0 = atomicrmw sub ptr %refs_.i, i64 1 acq_rel, align 8
  %cmp.i.i = icmp eq i64 %0, 1
  br i1 %cmp.i.i, label %if.then.i, label %_ZNK9grpc_core10RefCountedINS_14ConfigSelectorENS_19PolymorphicRefCountENS_11UnrefDeleteEE5UnrefEv.exit

if.then.i:                                        ; preds = %entry
  %vtable.i.i = load ptr, ptr %p, align 8
  %vfn.i.i = getelementptr inbounds i8, ptr %vtable.i.i, i64 8
  %1 = load ptr, ptr %vfn.i.i, align 8
  tail call void %1(ptr noundef nonnull align 8 dereferenceable(16) %p) #8
  br label %_ZNK9grpc_core10RefCountedINS_14ConfigSelectorENS_19PolymorphicRefCountENS_11UnrefDeleteEE5UnrefEv.exit

_ZNK9grpc_core10RefCountedINS_14ConfigSelectorENS_19PolymorphicRefCountENS_11UnrefDeleteEE5UnrefEv.exit: ; preds = %entry, %if.then.i
  ret void
}